; Function Attrs: mustprogress uwtable
define internal fastcc void @_ZN8facebook5velox12_GLOBAL__N_115printFixedWidthB5cxx11ERKNS0_13DecodedVectorEi(ptr noalias align 8 %agg.result, ptr nocapture noundef nonnull readonly align 8 dereferenceable(120) %decodedVector, i32 noundef %index) unnamed_addr #2 personality ptr @__gxx_personality_v0 {
entry:
  %ref.tmp = alloca %"class.std::allocator", align 1
  %nulls_.i = getelementptr inbounds i8, ptr %decodedVector, i64 24
  %0 = load ptr, ptr %nulls_.i, align 8
  %tobool.not.i = icmp eq ptr %0, null
  %isIdentityMapping_.i6.phi.trans.insert = getelementptr inbounds i8, ptr %decodedVector, i64 58
  %.pre = load i8, ptr %isIdentityMapping_.i6.phi.trans.insert, align 2
  br i1 %tobool.not.i, label %if.end, label %if.end.i

if.end.i:                                         ; preds = %entry
  %1 = and i8 %.pre, 1
  %tobool2.not.i = icmp eq i8 %1, 0
  br i1 %tobool2.not.i, label %lor.lhs.false.i, label %if.then4.i

lor.lhs.false.i:                                  ; preds = %if.end.i
  %hasExtraNulls_.i = getelementptr inbounds i8, ptr %decodedVector, i64 57
  %2 = load i8, ptr %hasExtraNulls_.i, align 1
  %3 = and i8 %2, 1
  %tobool3.not.i = icmp eq i8 %3, 0
  br i1 %tobool3.not.i, label %if.end6.i, label %if.then4.i

if.then4.i:                                       ; preds = %lor.lhs.false.i, %if.end.i
  %conv.i.i.i = sext i32 %index to i64
  %div2.i.i.i = lshr i64 %conv.i.i.i, 6
  %arrayidx.i.i.i = getelementptr inbounds i64, ptr %0, i64 %div2.i.i.i
  %4 = load i64, ptr %arrayidx.i.i.i, align 8
  %and.i.i.i = and i64 %conv.i.i.i, 63
  %shl.i.i.i = shl nuw i64 1, %and.i.i.i
  %and2.i.i.i = and i64 %4, %shl.i.i.i
  %tobool.i.not.i.i = icmp eq i64 %and2.i.i.i, 0
  br i1 %tobool.i.not.i.i, label %if.then, label %if.end

if.end6.i:                                        ; preds = %lor.lhs.false.i
  %isConstantMapping_.i = getelementptr inbounds i8, ptr %decodedVector, i64 59
  %5 = load i8, ptr %isConstantMapping_.i, align 1
  %6 = and i8 %5, 1
  %tobool7.not.i = icmp eq i8 %6, 0
  br i1 %tobool7.not.i, label %_ZNK8facebook5velox13DecodedVector8isNullAtEi.exit, label %if.then8.i

if.then8.i:                                       ; preds = %if.end6.i
  %7 = load i64, ptr %0, align 8
  %and2.i.i2.i = and i64 %7, 1
  %tobool.i.not.i3.i = icmp eq i64 %and2.i.i2.i, 0
  br i1 %tobool.i.not.i3.i, label %if.then, label %if.end

_ZNK8facebook5velox13DecodedVector8isNullAtEi.exit: ; preds = %if.end6.i
  %indices_.i = getelementptr inbounds i8, ptr %decodedVector, i64 8
  %8 = load ptr, ptr %indices_.i, align 8
  %idxprom.i = sext i32 %index to i64
  %arrayidx.i = getelementptr inbounds i32, ptr %8, i64 %idxprom.i
  %9 = load i32, ptr %arrayidx.i, align 4
  %conv.i.i4.i = sext i32 %9 to i64
  %div2.i.i5.i = lshr i64 %conv.i.i4.i, 6
  %arrayidx.i.i6.i = getelementptr inbounds i64, ptr %0, i64 %div2.i.i5.i
  %10 = load i64, ptr %arrayidx.i.i6.i, align 8
  %and.i.i7.i = and i64 %conv.i.i4.i, 63
  %shl.i.i8.i = shl nuw i64 1, %and.i.i7.i
  %and2.i.i9.i = and i64 %shl.i.i8.i, %10
  %tobool.i.not.i10.i = icmp eq i64 %and2.i.i9.i, 0
  br i1 %tobool.i.not.i10.i, label %if.then, label %if.end

if.then:                                          ; preds = %if.then8.i, %if.then4.i, %_ZNK8facebook5velox13DecodedVector8isNullAtEi.exit
  call void @_ZNSaIcEC1Ev(ptr noundef nonnull align 1 dereferenceable(1) %ref.tmp) #20
  %call.i5 = invoke noundef ptr @_ZNSt7__cxx1112basic_stringIcSt11char_traitsIcESaIcEE13_M_local_dataEv(ptr noundef nonnull align 8 dereferenceable(32) %agg.result)
          to label %call.i.noexc unwind label %lpad

call.i.noexc:                                     ; preds = %if.then
  invoke void @_ZNSt7__cxx1112basic_stringIcSt11char_traitsIcESaIcEE12_Alloc_hiderC1EPcRKS3_(ptr noundef nonnull align 8 dereferenceable(8) %agg.result, ptr noundef %call.i5, ptr noundef nonnull align 1 dereferenceable(1) %ref.tmp)
          to label %.noexc unwind label %lpad

.noexc:                                           ; preds = %call.i.noexc
  invoke void @_ZNSt7__cxx1112basic_stringIcSt11char_traitsIcESaIcEE12_M_constructIPKcEEvT_S8_St20forward_iterator_tag(ptr noundef nonnull align 8 dereferenceable(32) %agg.result, ptr noundef nonnull @.str.6, ptr noundef nonnull getelementptr inbounds ([7 x i8], ptr @.str.6, i64 0, i64 6))
          to label %invoke.cont unwind label %lpad.i

lpad.i:                                           ; preds = %.noexc
  %11 = landingpad { ptr, i32 }
          cleanup
  call void @_ZNSaIcED2Ev(ptr noundef nonnull align 1 dereferenceable(1) %agg.result) #20
  br label %lpad.body

invoke.cont:                                      ; preds = %.noexc
  call void @_ZNSaIcED1Ev(ptr noundef nonnull align 1 dereferenceable(1) %ref.tmp) #20
  br label %return

lpad:                                             ; preds = %call.i.noexc, %if.then
  %12 = landingpad { ptr, i32 }
          cleanup
  br label %lpad.body

lpad.body:                                        ; preds = %lpad.i, %lpad
  %eh.lpad-body = phi { ptr, i32 } [ %12, %lpad ], [ %11, %lpad.i ]
  call void @_ZNSaIcED1Ev(ptr noundef nonnull align 1 dereferenceable(1) %ref.tmp) #20
  resume { ptr, i32 } %eh.lpad-body

if.end:                                           ; preds = %entry, %if.then8.i, %if.then4.i, %_ZNK8facebook5velox13DecodedVector8isNullAtEi.exit
  %baseVector_.i = getelementptr inbounds i8, ptr %decodedVector, i64 48
  %13 = load ptr, ptr %baseVector_.i, align 8
  %14 = and i8 %.pre, 1
  %tobool.not.i7 = icmp eq i8 %14, 0
  br i1 %tobool.not.i7, label %if.end.i9, label %_ZNK8facebook5velox13DecodedVector5indexEi.exit

if.end.i9:                                        ; preds = %if.end
  %isConstantMapping_.i10 = getelementptr inbounds i8, ptr %decodedVector, i64 59
  %15 = load i8, ptr %isConstantMapping_.i10, align 1
  %16 = and i8 %15, 1
  %tobool2.not.i11 = icmp eq i8 %16, 0
  br i1 %tobool2.not.i11, label %if.end4.i, label %if.then3.i

if.then3.i:                                       ; preds = %if.end.i9
  %constantIndex_.i = getelementptr inbounds i8, ptr %decodedVector, i64 64
  %17 = load i32, ptr %constantIndex_.i, align 8
  br label %_ZNK8facebook5velox13DecodedVector5indexEi.exit

if.end4.i:                                        ; preds = %if.end.i9
  %indices_.i12 = getelementptr inbounds i8, ptr %decodedVector, i64 8
  %18 = load ptr, ptr %indices_.i12, align 8
  %idxprom.i13 = sext i32 %index to i64
  %arrayidx.i14 = getelementptr inbounds i32, ptr %18, i64 %idxprom.i13
  %19 = load i32, ptr %arrayidx.i14, align 4
  br label %_ZNK8facebook5velox13DecodedVector5indexEi.exit

_ZNK8facebook5velox13DecodedVector5indexEi.exit:  ; preds = %if.end, %if.then3.i, %if.end4.i
  %retval.0.i8 = phi i32 [ %17, %if.then3.i ], [ %19, %if.end4.i ], [ %index, %if.end ]
  %vtable = load ptr, ptr %13, align 8
  %vfn = getelementptr inbounds i8, ptr %vtable, i64 320
  %20 = load ptr, ptr %vfn, align 8
  tail call void %20(ptr sret(%"class.std::__cxx11::basic_string") align 8 %agg.result, ptr noundef nonnull align 8 dereferenceable(99) %13, i32 noundef %retval.0.i8)
  br label %return

return:                                           ; preds = %_ZNK8facebook5velox13DecodedVector5indexEi.exit, %invoke.cont
  ret void
}